target datalayout = "e-m:e-p270:32:32-p271:32:32-p272:64:64-i64:64-i128:128-f80:128-n8:16:32:64-S128"
target triple = "x86_64-pc-linux-gnu"

%union.pthread_mutex_t = type { %struct.__pthread_mutex_s }
%struct.__pthread_mutex_s = type { i32, i32, i32, i32, i32, i16, i16, %struct.__pthread_internal_list }
%struct.__pthread_internal_list = type { ptr, ptr }
%struct.wolfSSL_RefWithMutex = type { %union.pthread_mutex_t, i32 }
%struct.WOLFSSL_CTX = type <{ ptr, %struct.wolfSSL_RefWithMutex, i32, [4 x i8], %struct.WOLFSSL_BUFFER_INFO, %struct.WOLFSSL_BUFFER_INFO, ptr, ptr, i32, [4 x i8], ptr, i8, i8, [2 x i8], i32, i32, [4 x i8], ptr, ptr, ptr, i8, i16, i8, i8, i8, i16, i16, i16, i16, [2 x i8], i64, ptr, ptr, ptr, ptr, i32, i32, i16, [2 x i8], i32, [10 x i16], i8, [3 x i8], ptr, ptr, i32, [4 x i8], ptr, i8, [7 x i8] }>
%struct.WOLFSSL_BUFFER_INFO = type { ptr, i32 }

; Function Attrs: nounwind uwtable
define i32 @wolfSSL_CTX_SetTmpEC_DHE_Sz(ptr noundef %0, i16 noundef zeroext %1) #0 {
  %3 = alloca i32, align 4
  %4 = alloca ptr, align 8
  %5 = alloca i16, align 2
  store ptr %0, ptr %4, align 8, !tbaa !24
  store i16 %1, ptr %5, align 2, !tbaa !94
  br label %6

6:                                                ; preds = %2
  br label %7

7:                                                ; preds = %6
  %8 = load ptr, ptr %4, align 8, !tbaa !24
  %9 = icmp eq ptr %8, null
  br i1 %9, label %10, label %11

10:                                               ; preds = %7
  store i32 -173, ptr %3, align 4
  br label %49

11:                                               ; preds = %7
  %12 = load i16, ptr %5, align 2, !tbaa !94
  %13 = zext i16 %12 to i32
  %14 = icmp eq i32 %13, 0
  br i1 %14, label %15, label %35

15:                                               ; preds = %11
  %16 = load ptr, ptr %4, align 8, !tbaa !24
  %17 = getelementptr inbounds nuw %struct.WOLFSSL_CTX, ptr %16, i32 0, i32 11
  %18 = load i8, ptr %17, align 8, !tbaa !251
  %19 = zext i8 %18 to i32
  %20 = icmp ne i32 %19, 3
  br i1 %20, label %21, label %22

21:                                               ; preds = %15
  store i32 1, ptr %3, align 4
  br label %49

22:                                               ; preds = %15
  %23 = load ptr, ptr %4, align 8, !tbaa !24
  %24 = getelementptr inbounds nuw %struct.WOLFSSL_CTX, ptr %23, i32 0, i32 14
  %25 = load i32, ptr %24, align 4, !tbaa !229
  %26 = icmp eq i32 %25, 0
  br i1 %26, label %27, label %30

27:                                               ; preds = %22
  br label %28

28:                                               ; preds = %27
  br label %29

29:                                               ; preds = %28
  store i32 -173, ptr %3, align 4
  br label %49

30:                                               ; preds = %22
  %31 = load ptr, ptr %4, align 8, !tbaa !24
  %32 = getelementptr inbounds nuw %struct.WOLFSSL_CTX, ptr %31, i32 0, i32 14
  %33 = load i32, ptr %32, align 4, !tbaa !229
  %34 = trunc i32 %33 to i16
  store i16 %34, ptr %5, align 2, !tbaa !94
  br label %35

35:                                               ; preds = %30, %11
  %36 = load i16, ptr %5, align 2, !tbaa !94
  %37 = zext i16 %36 to i32
  %38 = icmp slt i32 %37, 28
  br i1 %38, label %39, label %40

39:                                               ; preds = %35
  store i32 -173, ptr %3, align 4
  br label %49

40:                                               ; preds = %35
  %41 = load i16, ptr %5, align 2, !tbaa !94
  %42 = zext i16 %41 to i32
  %43 = icmp sgt i32 %42, 66
  br i1 %43, label %44, label %45

44:                                               ; preds = %40
  store i32 -173, ptr %3, align 4
  br label %49

45:                                               ; preds = %40
  %46 = load i16, ptr %5, align 2, !tbaa !94
  %47 = load ptr, ptr %4, align 8, !tbaa !24
  %48 = getelementptr inbounds nuw %struct.WOLFSSL_CTX, ptr %47, i32 0, i32 37
  store i16 %46, ptr %48, align 8, !tbaa !252
  store i32 1, ptr %3, align 4
  br label %49

49:                                               ; preds = %45, %44, %39, %29, %21, %10
  %50 = load i32, ptr %3, align 4
  ret i32 %50
}