; Function Attrs: mustprogress nofree norecurse nosync nounwind willreturn memory(argmem: readwrite) uwtable
define range(i32 -173, 2) i32 @wolfSSL_CTX_SetTmpEC_DHE_Sz(ptr noundef captures(address_is_null) %0, i16 noundef zeroext %1) local_unnamed_addr #4 {
  %3 = icmp eq ptr %0, null
  br i1 %3, label %19, label %4

4:                                                ; preds = %2
  %5 = icmp eq i16 %1, 0
  br i1 %5, label %6, label %15

6:                                                ; preds = %4
  %7 = getelementptr inbounds nuw i8, ptr %0, i64 128
  %8 = load i8, ptr %7, align 8, !tbaa !211
  %.not = icmp eq i8 %8, 3
  br i1 %.not, label %9, label %19

9:                                                ; preds = %6
  %10 = getelementptr inbounds nuw i8, ptr %0, i64 132
  %11 = load i32, ptr %10, align 4, !tbaa !212
  %12 = icmp eq i32 %11, 0
  br i1 %12, label %19, label %13

13:                                               ; preds = %9
  %14 = trunc i32 %11 to i16
  br label %15

15:                                               ; preds = %13, %4
  %.0 = phi i16 [ %14, %13 ], [ %1, %4 ]
  %16 = add i16 %.0, -67
  %or.cond = icmp ult i16 %16, -39
  br i1 %or.cond, label %19, label %17

17:                                               ; preds = %15
  %18 = getelementptr inbounds nuw i8, ptr %0, i64 232
  store i16 %.0, ptr %18, align 8, !tbaa !231
  br label %19

19:                                               ; preds = %15, %9, %6, %2, %17
  %.09 = phi i32 [ 1, %17 ], [ -173, %2 ], [ 1, %6 ], [ -173, %9 ], [ -173, %15 ]
  ret i32 %.09
}